target datalayout = "e-m:e-p270:32:32-p271:32:32-p272:64:64-i64:64-i128:128-f80:128-n8:16:32:64-S128"
target triple = "x86_64-pc-linux-gnu"

@_ZN12_GLOBAL__N_110empty_gurlE = internal global ptr null, align 8
@_ZN4GURLC1Ev = unnamed_addr alias void (ptr), ptr @_ZN4GURLC2Ev

; Function Attrs: mustprogress uwtable
define void @_Z13EmptyGURLOncev() #0 personality ptr @__gxx_personality_v0 {
  %1 = alloca ptr, align 8
  %2 = alloca i32, align 4
  %3 = call noalias noundef nonnull ptr @_Znwm(i64 noundef 120) #17
  invoke void @_ZN4GURLC1Ev(ptr noundef nonnull align 8 dereferenceable(120) %3)
          to label %4 unwind label %5

4:                                                ; preds = %0
  store ptr %3, ptr @_ZN12_GLOBAL__N_110empty_gurlE, align 8, !tbaa !3
  ret void

5:                                                ; preds = %0
  %6 = landingpad { ptr, i32 }
          cleanup
  %7 = extractvalue { ptr, i32 } %6, 0
  store ptr %7, ptr %1, align 8
  %8 = extractvalue { ptr, i32 } %6, 1
  store i32 %8, ptr %2, align 4
  call void @_ZdlPv(ptr noundef %3) #18
  br label %9

9:                                                ; preds = %5
  %10 = load ptr, ptr %1, align 8
  %11 = load i32, ptr %2, align 4
  %12 = insertvalue { ptr, i32 } poison, ptr %10, 0
  %13 = insertvalue { ptr, i32 } %12, i32 %11, 1
  resume { ptr, i32 } %13
}