; Function Attrs: mustprogress uwtable
define void @_Z13EmptyGURLOncev() #0 personality ptr @__gxx_personality_v0 {
  %1 = tail call noalias noundef nonnull dereferenceable(120) ptr @_Znwm(i64 noundef 120) #18
  invoke void @_ZN4GURLC1Ev(ptr noundef nonnull align 8 dereferenceable(120) %1)
          to label %2 unwind label %3

2:                                                ; preds = %0
  store ptr %1, ptr @_ZN12_GLOBAL__N_110empty_gurlE, align 8, !tbaa !32
  ret void

3:                                                ; preds = %0
  %4 = landingpad { ptr, i32 }
          cleanup
  tail call void @_ZdlPv(ptr noundef nonnull %1) #16
  resume { ptr, i32 } %4
}